target datalayout = "e-m:e-p270:32:32-p271:32:32-p272:64:64-i64:64-i128:128-f80:128-n8:16:32:64-S128"
target triple = "x86_64-pc-linux-gnu"

%"struct.std::_Vector_base.31" = type { %"struct.std::_Vector_base<cv::ximgproc::ScanSegmentImpl::WSNode, std::allocator<cv::ximgproc::ScanSegmentImpl::WSNode>>::_Vector_impl" }
%"struct.std::_Vector_base<cv::ximgproc::ScanSegmentImpl::WSNode, std::allocator<cv::ximgproc::ScanSegmentImpl::WSNode>>::_Vector_impl" = type { %"struct.std::_Vector_base<cv::ximgproc::ScanSegmentImpl::WSNode, std::allocator<cv::ximgproc::ScanSegmentImpl::WSNode>>::_Vector_impl_data" }
%"struct.std::_Vector_base<cv::ximgproc::ScanSegmentImpl::WSNode, std::allocator<cv::ximgproc::ScanSegmentImpl::WSNode>>::_Vector_impl_data" = type { ptr, ptr, ptr }
%"struct.cv::ximgproc::ScanSegmentImpl::WSNode" = type { i32, i32, i32 }

; Function Attrs: mustprogress nounwind uwtable
define linkonce_odr hidden void @_ZNSt12_Destroy_auxILb1EE9__destroyIPN2cv8ximgproc15ScanSegmentImpl6WSNodeEEEvT_S7_(ptr noundef %0, ptr noundef %1) #4 comdat align 2 {
  %3 = alloca ptr, align 8
  %4 = alloca ptr, align 8
  store ptr %0, ptr %3, align 8, !tbaa !428
  store ptr %1, ptr %4, align 8, !tbaa !428
  ret void
}

; Function Attrs: inlinehint mustprogress uwtable
define linkonce_odr hidden void @_ZSt8_DestroyIPN2cv8ximgproc15ScanSegmentImpl6WSNodeEEvT_S5_(ptr noundef %0, ptr noundef %1) #8 comdat {
  %3 = alloca ptr, align 8
  %4 = alloca ptr, align 8
  store ptr %0, ptr %3, align 8, !tbaa !428
  store ptr %1, ptr %4, align 8, !tbaa !428
  %5 = load ptr, ptr %3, align 8, !tbaa !428
  %6 = load ptr, ptr %4, align 8, !tbaa !428
  call void @_ZNSt12_Destroy_auxILb1EE9__destroyIPN2cv8ximgproc15ScanSegmentImpl6WSNodeEEEvT_S7_(ptr noundef %5, ptr noundef %6)
  ret void
}

; Function Attrs: noinline noreturn nounwind uwtable
define linkonce_odr hidden void @__clang_call_terminate(ptr noundef %0) #12 comdat {
  %2 = call ptr @__cxa_begin_catch(ptr %0) #3
  call void @_ZSt9terminatev() #23
  unreachable
}

; Function Attrs: inlinehint mustprogress uwtable
define linkonce_odr hidden void @_ZSt8_DestroyIPN2cv8ximgproc15ScanSegmentImpl6WSNodeES3_EvT_S5_RSaIT0_E(ptr noundef %0, ptr noundef %1, ptr noundef nonnull align 1 dereferenceable(1) %2) #8 comdat {
  %4 = alloca ptr, align 8
  %5 = alloca ptr, align 8
  %6 = alloca ptr, align 8
  store ptr %0, ptr %4, align 8, !tbaa !428
  store ptr %1, ptr %5, align 8, !tbaa !428
  store ptr %2, ptr %6, align 8, !tbaa !297
  %7 = load ptr, ptr %4, align 8, !tbaa !428
  %8 = load ptr, ptr %5, align 8, !tbaa !428
  call void @_ZSt8_DestroyIPN2cv8ximgproc15ScanSegmentImpl6WSNodeEEvT_S5_(ptr noundef %7, ptr noundef %8)
  ret void
}

; Function Attrs: mustprogress nounwind uwtable
define linkonce_odr hidden noundef nonnull align 1 dereferenceable(1) ptr @_ZNSt12_Vector_baseIN2cv8ximgproc15ScanSegmentImpl6WSNodeESaIS3_EE19_M_get_Tp_allocatorEv(ptr noundef nonnull align 8 dereferenceable(24) %0) #4 comdat align 2 {
  %2 = alloca ptr, align 8
  store ptr %0, ptr %2, align 8, !tbaa !293
  %3 = load ptr, ptr %2, align 8
  %4 = getelementptr inbounds nuw %"struct.std::_Vector_base.31", ptr %3, i32 0, i32 0
  ret ptr %4
}

; Function Attrs: mustprogress nounwind uwtable
define linkonce_odr hidden void @_ZNSt6vectorIN2cv8ximgproc15ScanSegmentImpl6WSNodeESaIS3_EE15_M_erase_at_endEPS3_(ptr noundef nonnull align 8 dereferenceable(24) %0, ptr noundef %1) #4 comdat align 2 personality ptr @__gxx_personality_v0 {
  %3 = alloca ptr, align 8
  %4 = alloca ptr, align 8
  %5 = alloca i64, align 8
  store ptr %0, ptr %3, align 8, !tbaa !217
  store ptr %1, ptr %4, align 8, !tbaa !428
  %6 = load ptr, ptr %3, align 8
  call void @llvm.lifetime.start.p0(i64 8, ptr %5) #3
  %7 = getelementptr inbounds nuw %"struct.std::_Vector_base.31", ptr %6, i32 0, i32 0
  %8 = getelementptr inbounds nuw %"struct.std::_Vector_base<cv::ximgproc::ScanSegmentImpl::WSNode, std::allocator<cv::ximgproc::ScanSegmentImpl::WSNode>>::_Vector_impl_data", ptr %7, i32 0, i32 1
  %9 = load ptr, ptr %8, align 8, !tbaa !220
  %10 = load ptr, ptr %4, align 8, !tbaa !428
  %11 = ptrtoint ptr %9 to i64
  %12 = ptrtoint ptr %10 to i64
  %13 = sub i64 %11, %12
  %14 = sdiv exact i64 %13, 12
  store i64 %14, ptr %5, align 8, !tbaa !111
  %15 = load i64, ptr %5, align 8, !tbaa !111
  %16 = icmp ne i64 %15, 0
  br i1 %16, label %17, label %27

17:                                               ; preds = %2
  %18 = load ptr, ptr %4, align 8, !tbaa !428
  %19 = getelementptr inbounds nuw %"struct.std::_Vector_base.31", ptr %6, i32 0, i32 0
  %20 = getelementptr inbounds nuw %"struct.std::_Vector_base<cv::ximgproc::ScanSegmentImpl::WSNode, std::allocator<cv::ximgproc::ScanSegmentImpl::WSNode>>::_Vector_impl_data", ptr %19, i32 0, i32 1
  %21 = load ptr, ptr %20, align 8, !tbaa !220
  %22 = call noundef nonnull align 1 dereferenceable(1) ptr @_ZNSt12_Vector_baseIN2cv8ximgproc15ScanSegmentImpl6WSNodeESaIS3_EE19_M_get_Tp_allocatorEv(ptr noundef nonnull align 8 dereferenceable(24) %6) #3
  invoke void @_ZSt8_DestroyIPN2cv8ximgproc15ScanSegmentImpl6WSNodeES3_EvT_S5_RSaIT0_E(ptr noundef %18, ptr noundef %21, ptr noundef nonnull align 1 dereferenceable(1) %22)
          to label %23 unwind label %28

23:                                               ; preds = %17
  %24 = load ptr, ptr %4, align 8, !tbaa !428
  %25 = getelementptr inbounds nuw %"struct.std::_Vector_base.31", ptr %6, i32 0, i32 0
  %26 = getelementptr inbounds nuw %"struct.std::_Vector_base<cv::ximgproc::ScanSegmentImpl::WSNode, std::allocator<cv::ximgproc::ScanSegmentImpl::WSNode>>::_Vector_impl_data", ptr %25, i32 0, i32 1
  store ptr %24, ptr %26, align 8, !tbaa !220
  br label %27

27:                                               ; preds = %23, %2
  call void @llvm.lifetime.end.p0(i64 8, ptr %5) #3
  ret void

28:                                               ; preds = %17
  %29 = landingpad { ptr, i32 }
          catch ptr null
  %30 = extractvalue { ptr, i32 } %29, 0
  call void @__clang_call_terminate(ptr %30) #23
  unreachable
}

; Function Attrs: mustprogress nounwind uwtable
define linkonce_odr hidden noundef nonnull align 4 dereferenceable(12) ptr @_ZNSt6vectorIN2cv8ximgproc15ScanSegmentImpl6WSNodeESaIS3_EEixEm(ptr noundef nonnull align 8 dereferenceable(24) %0, i64 noundef %1) #4 comdat align 2 {
  %3 = alloca ptr, align 8
  %4 = alloca i64, align 8
  store ptr %0, ptr %3, align 8, !tbaa !217
  store i64 %1, ptr %4, align 8, !tbaa !111
  %5 = load ptr, ptr %3, align 8
  %6 = getelementptr inbounds nuw %"struct.std::_Vector_base.31", ptr %5, i32 0, i32 0
  %7 = getelementptr inbounds nuw %"struct.std::_Vector_base<cv::ximgproc::ScanSegmentImpl::WSNode, std::allocator<cv::ximgproc::ScanSegmentImpl::WSNode>>::_Vector_impl_data", ptr %6, i32 0, i32 0
  %8 = load ptr, ptr %7, align 8, !tbaa !223
  %9 = load i64, ptr %4, align 8, !tbaa !111
  %10 = getelementptr inbounds nuw %"struct.cv::ximgproc::ScanSegmentImpl::WSNode", ptr %8, i64 %9
  ret ptr %10
}

; Function Attrs: mustprogress uwtable
define linkonce_odr hidden void @_ZNSt6vectorIN2cv8ximgproc15ScanSegmentImpl6WSNodeESaIS3_EE6resizeEm(ptr noundef nonnull align 8 dereferenceable(24) %0, i64 noundef %1) #6 comdat align 2 {
  %3 = alloca ptr, align 8
  %4 = alloca i64, align 8
  store ptr %0, ptr %3, align 8, !tbaa !217
  store i64 %1, ptr %4, align 8, !tbaa !111
  %5 = load ptr, ptr %3, align 8
  %6 = load i64, ptr %4, align 8, !tbaa !111
  %7 = call noundef i64 @_ZNKSt6vectorIN2cv8ximgproc15ScanSegmentImpl6WSNodeESaIS3_EE4sizeEv(ptr noundef nonnull align 8 dereferenceable(24) %5) #3
  %8 = icmp ugt i64 %6, %7
  br i1 %8, label %9, label %13

9:                                                ; preds = %2
  %10 = load i64, ptr %4, align 8, !tbaa !111
  %11 = call noundef i64 @_ZNKSt6vectorIN2cv8ximgproc15ScanSegmentImpl6WSNodeESaIS3_EE4sizeEv(ptr noundef nonnull align 8 dereferenceable(24) %5) #3
  %12 = sub i64 %10, %11
  call void @_ZNSt6vectorIN2cv8ximgproc15ScanSegmentImpl6WSNodeESaIS3_EE17_M_default_appendEm(ptr noundef nonnull align 8 dereferenceable(24) %5, i64 noundef %12)
  br label %24

13:                                               ; preds = %2
  %14 = load i64, ptr %4, align 8, !tbaa !111
  %15 = call noundef i64 @_ZNKSt6vectorIN2cv8ximgproc15ScanSegmentImpl6WSNodeESaIS3_EE4sizeEv(ptr noundef nonnull align 8 dereferenceable(24) %5) #3
  %16 = icmp ult i64 %14, %15
  br i1 %16, label %17, label %23

17:                                               ; preds = %13
  %18 = getelementptr inbounds nuw %"struct.std::_Vector_base.31", ptr %5, i32 0, i32 0
  %19 = getelementptr inbounds nuw %"struct.std::_Vector_base<cv::ximgproc::ScanSegmentImpl::WSNode, std::allocator<cv::ximgproc::ScanSegmentImpl::WSNode>>::_Vector_impl_data", ptr %18, i32 0, i32 0
  %20 = load ptr, ptr %19, align 8, !tbaa !223
  %21 = load i64, ptr %4, align 8, !tbaa !111
  %22 = getelementptr inbounds nuw %"struct.cv::ximgproc::ScanSegmentImpl::WSNode", ptr %20, i64 %21
  call void @_ZNSt6vectorIN2cv8ximgproc15ScanSegmentImpl6WSNodeESaIS3_EE15_M_erase_at_endEPS3_(ptr noundef nonnull align 8 dereferenceable(24) %5, ptr noundef %22) #3
  br label %23

23:                                               ; preds = %17, %13
  br label %24

24:                                               ; preds = %23, %9
  ret void
}

; Function Attrs: mustprogress nounwind uwtable
define linkonce_odr hidden noundef i64 @_ZNKSt6vectorIN2cv8ximgproc15ScanSegmentImpl6WSNodeESaIS3_EE4sizeEv(ptr noundef nonnull align 8 dereferenceable(24) %0) #4 comdat align 2 {
  %2 = alloca ptr, align 8
  store ptr %0, ptr %2, align 8, !tbaa !217
  %3 = load ptr, ptr %2, align 8
  %4 = getelementptr inbounds nuw %"struct.std::_Vector_base.31", ptr %3, i32 0, i32 0
  %5 = getelementptr inbounds nuw %"struct.std::_Vector_base<cv::ximgproc::ScanSegmentImpl::WSNode, std::allocator<cv::ximgproc::ScanSegmentImpl::WSNode>>::_Vector_impl_data", ptr %4, i32 0, i32 1
  %6 = load ptr, ptr %5, align 8, !tbaa !220
  %7 = getelementptr inbounds nuw %"struct.std::_Vector_base.31", ptr %3, i32 0, i32 0
  %8 = getelementptr inbounds nuw %"struct.std::_Vector_base<cv::ximgproc::ScanSegmentImpl::WSNode, std::allocator<cv::ximgproc::ScanSegmentImpl::WSNode>>::_Vector_impl_data", ptr %7, i32 0, i32 0
  %9 = load ptr, ptr %8, align 8, !tbaa !223
  %10 = ptrtoint ptr %6 to i64
  %11 = ptrtoint ptr %9 to i64
  %12 = sub i64 %10, %11
  %13 = sdiv exact i64 %12, 12
  ret i64 %13
}

; Function Attrs: mustprogress uwtable
define hidden noundef i32 @_ZN2cv8ximgproc15ScanSegmentImpl12allocWSNodesERSt6vectorINS1_6WSNodeESaIS3_EE(ptr noundef nonnull align 8 dereferenceable(24) %0) #6 align 2 {
  %2 = alloca ptr, align 8
  %3 = alloca i32, align 4
  %4 = alloca i32, align 4
  %5 = alloca i32, align 4
  store ptr %0, ptr %2, align 8, !tbaa !217
  call void @llvm.lifetime.start.p0(i64 4, ptr %3) #3
  %6 = load ptr, ptr %2, align 8, !tbaa !217
  %7 = call noundef i64 @_ZNKSt6vectorIN2cv8ximgproc15ScanSegmentImpl6WSNodeESaIS3_EE4sizeEv(ptr noundef nonnull align 8 dereferenceable(24) %6) #3
  %8 = trunc i64 %7 to i32
  store i32 %8, ptr %3, align 4, !tbaa !8
  call void @llvm.lifetime.start.p0(i64 4, ptr %4) #3
  %9 = load i32, ptr %3, align 4, !tbaa !8
  %10 = mul nsw i32 %9, 3
  %11 = sdiv i32 %10, 2
  %12 = icmp slt i32 128, %11
  br i1 %12, label %13, label %17

13:                                               ; preds = %1
  %14 = load i32, ptr %3, align 4, !tbaa !8
  %15 = mul nsw i32 %14, 3
  %16 = sdiv i32 %15, 2
  br label %18

17:                                               ; preds = %1
  br label %18

18:                                               ; preds = %17, %13
  %19 = phi i32 [ %16, %13 ], [ 128, %17 ]
  store i32 %19, ptr %4, align 4, !tbaa !8
  %20 = load ptr, ptr %2, align 8, !tbaa !217
  %21 = load i32, ptr %4, align 4, !tbaa !8
  %22 = sext i32 %21 to i64
  call void @_ZNSt6vectorIN2cv8ximgproc15ScanSegmentImpl6WSNodeESaIS3_EE6resizeEm(ptr noundef nonnull align 8 dereferenceable(24) %20, i64 noundef %22)
  %23 = load i32, ptr %3, align 4, !tbaa !8
  %24 = icmp eq i32 %23, 0
  br i1 %24, label %25, label %29

25:                                               ; preds = %18
  %26 = load ptr, ptr %2, align 8, !tbaa !217
  %27 = call noundef nonnull align 4 dereferenceable(12) ptr @_ZNSt6vectorIN2cv8ximgproc15ScanSegmentImpl6WSNodeESaIS3_EEixEm(ptr noundef nonnull align 8 dereferenceable(24) %26, i64 noundef 0) #3
  %28 = getelementptr inbounds nuw %"struct.cv::ximgproc::ScanSegmentImpl::WSNode", ptr %27, i32 0, i32 0
  store i32 0, ptr %28, align 4, !tbaa !202
  store i32 1, ptr %3, align 4, !tbaa !8
  br label %29

29:                                               ; preds = %25, %18
  call void @llvm.lifetime.start.p0(i64 4, ptr %5) #3
  %30 = load i32, ptr %3, align 4, !tbaa !8
  store i32 %30, ptr %5, align 4, !tbaa !8
  br label %31

31:                                               ; preds = %45, %29
  %32 = load i32, ptr %5, align 4, !tbaa !8
  %33 = load i32, ptr %4, align 4, !tbaa !8
  %34 = sub nsw i32 %33, 1
  %35 = icmp slt i32 %32, %34
  br i1 %35, label %37, label %36

36:                                               ; preds = %31
  call void @llvm.lifetime.end.p0(i64 4, ptr %5) #3
  br label %48

37:                                               ; preds = %31
  %38 = load i32, ptr %5, align 4, !tbaa !8
  %39 = add nsw i32 %38, 1
  %40 = load ptr, ptr %2, align 8, !tbaa !217
  %41 = load i32, ptr %5, align 4, !tbaa !8
  %42 = sext i32 %41 to i64
  %43 = call noundef nonnull align 4 dereferenceable(12) ptr @_ZNSt6vectorIN2cv8ximgproc15ScanSegmentImpl6WSNodeESaIS3_EEixEm(ptr noundef nonnull align 8 dereferenceable(24) %40, i64 noundef %42) #3
  %44 = getelementptr inbounds nuw %"struct.cv::ximgproc::ScanSegmentImpl::WSNode", ptr %43, i32 0, i32 0
  store i32 %39, ptr %44, align 4, !tbaa !202
  br label %45

45:                                               ; preds = %37
  %46 = load i32, ptr %5, align 4, !tbaa !8
  %47 = add nsw i32 %46, 1
  store i32 %47, ptr %5, align 4, !tbaa !8
  br label %31, !llvm.loop !219

48:                                               ; preds = %36
  %49 = load ptr, ptr %2, align 8, !tbaa !217
  %50 = load i32, ptr %4, align 4, !tbaa !8
  %51 = sub nsw i32 %50, 1
  %52 = sext i32 %51 to i64
  %53 = call noundef nonnull align 4 dereferenceable(12) ptr @_ZNSt6vectorIN2cv8ximgproc15ScanSegmentImpl6WSNodeESaIS3_EEixEm(ptr noundef nonnull align 8 dereferenceable(24) %49, i64 noundef %52) #3
  %54 = getelementptr inbounds nuw %"struct.cv::ximgproc::ScanSegmentImpl::WSNode", ptr %53, i32 0, i32 0
  store i32 0, ptr %54, align 4, !tbaa !202
  %55 = load i32, ptr %3, align 4, !tbaa !8
  call void @llvm.lifetime.end.p0(i64 4, ptr %4) #3
  call void @llvm.lifetime.end.p0(i64 4, ptr %3) #3
  ret i32 %55
}