; Function Attrs: mustprogress uwtable
define hidden noundef range(i32 1, 0) i32 @_ZN2cv8ximgproc15ScanSegmentImpl12allocWSNodesERSt6vectorINS1_6WSNodeESaIS3_EE(ptr noundef nonnull align 8 dereferenceable(24) %0) local_unnamed_addr #6 align 2 personality ptr @__gxx_personality_v0 {
  %2 = getelementptr inbounds nuw i8, ptr %0, i64 8
  %3 = load ptr, ptr %2, align 8, !tbaa !186
  %4 = load ptr, ptr %0, align 8, !tbaa !189
  %5 = ptrtoint ptr %3 to i64
  %6 = ptrtoint ptr %4 to i64
  %7 = sub i64 %5, %6
  %8 = sdiv exact i64 %7, 12
  %9 = trunc i64 %8 to i32
  %10 = icmp sgt i32 %9, 85
  %11 = lshr i32 %9, 1
  %12 = add nsw i32 %11, %9
  %13 = select i1 %10, i32 %12, i32 128
  %14 = zext nneg i32 %13 to i64
  %15 = icmp ult i64 %8, %14
  br i1 %15, label %16, label %18

16:                                               ; preds = %1
  %17 = sub nuw nsw i64 %14, %8
  tail call void @_ZNSt6vectorIN2cv8ximgproc15ScanSegmentImpl6WSNodeESaIS3_EE17_M_default_appendEm(ptr noundef nonnull align 8 dereferenceable(24) %0, i64 noundef %17)
  %.pre.pre.pre = load ptr, ptr %0, align 8, !tbaa !189
  br label %_ZNSt6vectorIN2cv8ximgproc15ScanSegmentImpl6WSNodeESaIS3_EE6resizeEm.exit

18:                                               ; preds = %1
  %19 = icmp ugt i64 %8, %14
  br i1 %19, label %20, label %_ZNSt6vectorIN2cv8ximgproc15ScanSegmentImpl6WSNodeESaIS3_EE6resizeEm.exit

20:                                               ; preds = %18
  %21 = getelementptr inbounds nuw %"struct.cv::ximgproc::ScanSegmentImpl::WSNode", ptr %4, i64 %14
  %.not.i.i = icmp eq ptr %3, %21
  br i1 %.not.i.i, label %_ZNSt6vectorIN2cv8ximgproc15ScanSegmentImpl6WSNodeESaIS3_EE6resizeEm.exit, label %22

22:                                               ; preds = %20
  store ptr %21, ptr %2, align 8, !tbaa !186
  br label %_ZNSt6vectorIN2cv8ximgproc15ScanSegmentImpl6WSNodeESaIS3_EE6resizeEm.exit

_ZNSt6vectorIN2cv8ximgproc15ScanSegmentImpl6WSNodeESaIS3_EE6resizeEm.exit: ; preds = %16, %18, %20, %22
  %.pre.pre = phi ptr [ %.pre.pre.pre, %16 ], [ %4, %18 ], [ %4, %20 ], [ %4, %22 ]
  %23 = icmp eq i32 %9, 0
  br i1 %23, label %24, label %25

24:                                               ; preds = %_ZNSt6vectorIN2cv8ximgproc15ScanSegmentImpl6WSNodeESaIS3_EE6resizeEm.exit
  store i32 0, ptr %.pre.pre, align 4, !tbaa !172
  br label %25

25:                                               ; preds = %24, %_ZNSt6vectorIN2cv8ximgproc15ScanSegmentImpl6WSNodeESaIS3_EE6resizeEm.exit
  %.016 = phi i32 [ 1, %24 ], [ %9, %_ZNSt6vectorIN2cv8ximgproc15ScanSegmentImpl6WSNodeESaIS3_EE6resizeEm.exit ]
  %26 = add nsw i32 %13, -1
  %27 = icmp slt i32 %.016, %26
  br i1 %27, label %.lr.ph, label %._crit_edge

.lr.ph:                                           ; preds = %25
  %28 = sext i32 %.016 to i64
  %wide.trip.count = sext i32 %26 to i64
  br label %31

._crit_edge:                                      ; preds = %31, %25
  %29 = zext nneg i32 %26 to i64
  %30 = getelementptr inbounds nuw %"struct.cv::ximgproc::ScanSegmentImpl::WSNode", ptr %.pre.pre, i64 %29
  store i32 0, ptr %30, align 4, !tbaa !172
  ret i32 %.016

31:                                               ; preds = %.lr.ph, %31
  %indvars.iv = phi i64 [ %28, %.lr.ph ], [ %indvars.iv.next, %31 ]
  %indvars.iv.next = add nsw i64 %indvars.iv, 1
  %32 = getelementptr inbounds nuw %"struct.cv::ximgproc::ScanSegmentImpl::WSNode", ptr %.pre.pre, i64 %indvars.iv
  %33 = trunc nsw i64 %indvars.iv.next to i32
  store i32 %33, ptr %32, align 4, !tbaa !172
  %exitcond.not = icmp eq i64 %indvars.iv.next, %wide.trip.count
  br i1 %exitcond.not, label %._crit_edge, label %31, !llvm.loop !174
}